; Function Attrs: mustprogress nofree norecurse nosync nounwind willreturn memory(argmem: read) uwtable
define noundef i32 @_ZN6LibRaw5sget4EPh(ptr noundef nonnull readonly align 8 captures(none) dereferenceable(767680) %0, ptr noundef readonly captures(none) %1) local_unnamed_addr #0 align 2 {
  %3 = getelementptr inbounds nuw i8, ptr %0, i64 381552
  %4 = load i16, ptr %3, align 8, !tbaa !6
  %5 = icmp eq i16 %4, 18761
  br i1 %5, label %6, label %8

6:                                                ; preds = %2
  %7 = load i32, ptr %1, align 1
  br label %_Z19libraw_sget4_staticsPh.exit

8:                                                ; preds = %2
  %9 = load i8, ptr %1, align 1, !tbaa !71
  %10 = zext i8 %9 to i32
  %11 = shl nuw i32 %10, 24
  %12 = getelementptr inbounds nuw i8, ptr %1, i64 1
  %13 = load i8, ptr %12, align 1, !tbaa !71
  %14 = zext i8 %13 to i32
  %15 = shl nuw nsw i32 %14, 16
  %16 = or disjoint i32 %15, %11
  %17 = getelementptr inbounds nuw i8, ptr %1, i64 2
  %18 = load i8, ptr %17, align 1, !tbaa !71
  %19 = zext i8 %18 to i32
  %20 = shl nuw nsw i32 %19, 8
  %21 = or disjoint i32 %16, %20
  %22 = getelementptr inbounds nuw i8, ptr %1, i64 3
  %23 = load i8, ptr %22, align 1, !tbaa !71
  %24 = zext i8 %23 to i32
  %25 = or disjoint i32 %21, %24
  br label %_Z19libraw_sget4_staticsPh.exit

_Z19libraw_sget4_staticsPh.exit:                  ; preds = %6, %8
  %.0.i = phi i32 [ %7, %6 ], [ %25, %8 ]
  ret i32 %.0.i
}